; Function Attrs: mustprogress nofree norecurse nosync nounwind optsize willreturn memory(argmem: read) uwtable
define noundef zeroext i1 @_ZNK5ZXing6Result7isValidEv(ptr noundef nonnull readonly align 8 captures(none) dereferenceable(211) %0) local_unnamed_addr #7 align 2 {
  %2 = getelementptr inbounds nuw i8, ptr %0, i64 192
  %3 = load i32, ptr %2, align 8, !tbaa !36
  %.not = icmp eq i32 %3, 0
  br i1 %.not, label %12, label %4

4:                                                ; preds = %1
  %5 = load ptr, ptr %0, align 8, !tbaa !67
  %6 = getelementptr inbounds nuw i8, ptr %0, i64 8
  %7 = load ptr, ptr %6, align 8, !tbaa !67
  %8 = icmp eq ptr %5, %7
  br i1 %8, label %12, label %9

9:                                                ; preds = %4
  %10 = getelementptr inbounds nuw i8, ptr %0, i64 98
  %11 = load i8, ptr %10, align 2, !tbaa !68
  %.not1 = icmp eq i8 %11, 0
  br label %12

12:                                               ; preds = %9, %4, %1
  %13 = phi i1 [ false, %4 ], [ false, %1 ], [ %.not1, %9 ]
  ret i1 %13
}